; Function Attrs: mustprogress nounwind uwtable
define void @_ZN9grpc_core17EndpointAddressesC2EOS0_(ptr noundef nonnull align 8 dereferenceable(32) initializes((0, 24)) %0, ptr noundef nonnull align 8 dereferenceable(32) %1) unnamed_addr #7 align 2 {
  %3 = load ptr, ptr %1, align 8, !tbaa !3
  store ptr %3, ptr %0, align 8, !tbaa !3
  %4 = getelementptr inbounds nuw i8, ptr %0, i64 8
  %5 = getelementptr inbounds nuw i8, ptr %1, i64 8
  %6 = load ptr, ptr %5, align 8, !tbaa !9
  store ptr %6, ptr %4, align 8, !tbaa !9
  %7 = getelementptr inbounds nuw i8, ptr %0, i64 16
  %8 = getelementptr inbounds nuw i8, ptr %1, i64 16
  %9 = load ptr, ptr %8, align 8, !tbaa !10
  store ptr %9, ptr %7, align 8, !tbaa !10
  tail call void @llvm.memset.p0.i64(ptr noundef nonnull align 8 dereferenceable(24) %1, i8 0, i64 24, i1 false)
  %10 = getelementptr inbounds nuw i8, ptr %0, i64 24
  %11 = getelementptr inbounds nuw i8, ptr %1, i64 24
  tail call void @_ZN9grpc_core11ChannelArgsC1EOS0_(ptr noundef nonnull align 8 dereferenceable(8) %10, ptr noundef nonnull align 8 dereferenceable(8) %11) #27
  ret void
}